target datalayout = "e-m:e-p270:32:32-p271:32:32-p272:64:64-i64:64-i128:128-f80:128-n8:16:32:64-S128"
target triple = "x86_64-pc-linux-gnu"

@H5PL_num_paths_g = internal global i32 0, align 4
@H5PL_paths_g = internal global ptr null, align 8
@.str = private unnamed_addr constant [102 x i8] c"generated/home/dtcxzyw/WorkSpace/Projects/compilers/llvm-opt-benchmark/bench/hdf5/hdf5/src/H5PLpath.c\00", align 1
@__func__.H5PL__get_path = private unnamed_addr constant [15 x i8] c"H5PL__get_path\00", align 1
@H5E_ARGS_g = external global i64, align 8
@H5E_BADRANGE_g = external global i64, align 8
@.str.12 = private unnamed_addr constant [39 x i8] c"path index %u is out of range in table\00", align 1

; Function Attrs: nounwind uwtable
define ptr @H5PL__get_path(i32 noundef %0) #0 {
  %2 = alloca ptr, align 8
  %3 = alloca i32, align 4
  %4 = alloca ptr, align 8
  %5 = alloca i8, align 1
  store i32 %0, ptr %3, align 4
  store ptr null, ptr %4, align 8
  store i8 0, ptr %5, align 1
  %6 = load i32, ptr %3, align 4
  %7 = load i32, ptr @H5PL_num_paths_g, align 4
  %8 = icmp uge i32 %6, %7
  br i1 %8, label %9, label %25

9:                                                ; preds = %1
  br label %10

10:                                               ; preds = %9
  br label %11

11:                                               ; preds = %10
  br label %12

12:                                               ; preds = %11
  %13 = load i64, ptr @H5E_ARGS_g, align 8
  %14 = load i64, ptr @H5E_BADRANGE_g, align 8
  %15 = load i32, ptr %3, align 4
  %16 = call i32 (ptr, ptr, i32, i64, i64, ptr, ...) @H5E_printf_stack(ptr noundef @.str, ptr noundef @__func__.H5PL__get_path, i32 noundef 546, i64 noundef %13, i64 noundef %14, ptr noundef @.str.12, i32 noundef %15)
  br label %17

17:                                               ; preds = %12
  store i8 1, ptr %5, align 1
  %18 = load i8, ptr %5, align 1
  %19 = trunc i8 %18 to i1
  %20 = zext i1 %19 to i8
  store i8 %20, ptr %5, align 1
  br label %21

21:                                               ; preds = %17
  br label %22

22:                                               ; preds = %21
  store ptr null, ptr %4, align 8
  br label %31

23:                                               ; No predecessors!
  br label %24

24:                                               ; preds = %23
  br label %25

25:                                               ; preds = %24, %1
  %26 = load ptr, ptr @H5PL_paths_g, align 8
  %27 = load i32, ptr %3, align 4
  %28 = zext i32 %27 to i64
  %29 = getelementptr inbounds ptr, ptr %26, i64 %28
  %30 = load ptr, ptr %29, align 8
  store ptr %30, ptr %2, align 8
  br label %33

31:                                               ; preds = %22
  %32 = load ptr, ptr %4, align 8
  store ptr %32, ptr %2, align 8
  br label %33

33:                                               ; preds = %31, %25
  %34 = load ptr, ptr %2, align 8
  ret ptr %34
}