; Function Attrs: nounwind uwtable
define ptr @H5PL__get_path(i32 noundef %0) local_unnamed_addr #0 {
  %2 = load i32, ptr @H5PL_num_paths_g, align 4
  %.not = icmp ugt i32 %2, %0
  br i1 %.not, label %7, label %3

3:                                                ; preds = %1
  %4 = load i64, ptr @H5E_ARGS_g, align 8
  %5 = load i64, ptr @H5E_BADRANGE_g, align 8
  %6 = tail call i32 (ptr, ptr, i32, i64, i64, ptr, ...) @H5E_printf_stack(ptr noundef nonnull @.str, ptr noundef nonnull @__func__.H5PL__get_path, i32 noundef 546, i64 noundef %4, i64 noundef %5, ptr noundef nonnull @.str.12, i32 noundef %0) #13
  br label %12

7:                                                ; preds = %1
  %8 = load ptr, ptr @H5PL_paths_g, align 8
  %9 = zext i32 %0 to i64
  %10 = getelementptr inbounds ptr, ptr %8, i64 %9
  %11 = load ptr, ptr %10, align 8
  br label %12

12:                                               ; preds = %3, %7
  %.0 = phi ptr [ null, %3 ], [ %11, %7 ]
  ret ptr %.0
}